target datalayout = "e-m:e-p270:32:32-p271:32:32-p272:64:64-i64:64-i128:128-f80:128-n8:16:32:64-S128"
target triple = "x86_64-pc-linux-gnu"

%"class.sls::bv_eval" = type <{ ptr, ptr, ptr, %"class.sls::bv_lookahead", %class.bv_util, %"class.sls::bv_fixed", [8 x i8], %class.ptr_vector, %class.random_gen, %"struct.sls::bv_eval::config", %class.svector.7, i32, i32, %class.svector.9, %class.svector.11, %class.scoped_ptr_vector, %"class.sls::bvect", %"class.sls::bvect", %"class.sls::bvect", %"class.sls::bvect", %"class.sls::bvect", %"class.sls::bvect", %"class.sls::bvect", %"class.sls::bvect", %"class.sls::bvect", %"class.sls::bvect", %"class.sls::bvect", %"class.sls::bvect", %"class.sls::bvect", i8, [7 x i8] }>
%"class.sls::bv_lookahead" = type { %class.bv_util, ptr, ptr, ptr, %"struct.sls::bv_lookahead::config", %"struct.sls::bv_lookahead::stats", %"class.sls::bvect", %"class.sls::bvect", %class.ptr_vector, %class.svector.1, %class.vector.3, %class.obj_mark, double, double, %"class.sls::bvect", ptr, ptr, %class.ptr_vector, %class.vector.4, %class.obj_mark, i32, %class.tracked_uint_set, i32, i32 }
%"struct.sls::bv_lookahead::config" = type <{ i8, [7 x i8], double, i32, i32, i8, i8, i8, i8, i32, i32, i32, i32, i8, [3 x i8], i32, i32, i32, i8, [3 x i8], double, double, i8, [7 x i8], double, i8, i8, i8, [5 x i8] }>
%"struct.sls::bv_lookahead::stats" = type { i32, i32, i32, i32, i32, i32 }
%class.svector.1 = type { %class.vector.2 }
%class.vector.2 = type { ptr }
%class.vector.3 = type { ptr }
%class.vector.4 = type { ptr }
%class.obj_mark = type { [8 x i8], %class.bit_vector }
%class.bit_vector = type { i32, i32, ptr }
%class.tracked_uint_set = type { %class.svector.5, %class.svector }
%class.svector.5 = type { %class.vector.6 }
%class.vector.6 = type { ptr }
%class.svector = type { %class.vector }
%class.vector = type { ptr }
%class.bv_util = type { %class.bv_recognizers, ptr, ptr }
%class.bv_recognizers = type { i32 }
%"class.sls::bv_fixed" = type { ptr, ptr, ptr, ptr, ptr }
%class.ptr_vector = type { %class.vector.0 }
%class.vector.0 = type { ptr }
%class.random_gen = type { i32 }
%"struct.sls::bv_eval::config" = type { i32 }
%class.svector.7 = type { %class.vector.8 }
%class.vector.8 = type { ptr }
%class.svector.9 = type { %class.vector.10 }
%class.vector.10 = type { ptr }
%class.svector.11 = type { %class.vector.12 }
%class.vector.12 = type { ptr }
%class.scoped_ptr_vector = type { %class.ptr_vector.13 }
%class.ptr_vector.13 = type { %class.vector.14 }
%class.vector.14 = type { ptr }
%"class.sls::bvect" = type <{ %class.svector, i32, i32, i32, [4 x i8] }>
%"class.sls::bv_valuation" = type { %"class.sls::bvect", %"class.sls::bvect", %"class.sls::bvect", %"class.sls::bvect", %"class.sls::bvect", %"class.sls::bvect", i32, i32, i32, i32, %"class.sls::bvect" }

; Function Attrs: mustprogress nounwind uwtable
define linkonce_odr hidden noundef i32 @_ZN3sls5bvect12get_pos_maskEj(i32 noundef %0) #5 comdat align 2 {
  %2 = alloca i32, align 4
  store i32 %0, ptr %2, align 4, !tbaa !97
  %3 = load i32, ptr %2, align 4, !tbaa !97
  %4 = zext i32 %3 to i64
  %5 = urem i64 %4, 32
  %6 = trunc i64 %5 to i32
  %7 = shl i32 1, %6
  ret i32 %7
}

; Function Attrs: mustprogress uwtable
define linkonce_odr hidden noundef nonnull align 4 dereferenceable(4) ptr @_ZN3sls5bvect12get_bit_wordEj(ptr noundef nonnull align 8 dereferenceable(20) %0, i32 noundef %1) #4 comdat align 2 {
  %3 = alloca ptr, align 8
  %4 = alloca i32, align 4
  store ptr %0, ptr %3, align 8, !tbaa !110
  store i32 %1, ptr %4, align 4, !tbaa !97
  %5 = load ptr, ptr %3, align 8
  %6 = load i32, ptr %4, align 4, !tbaa !97
  %7 = zext i32 %6 to i64
  %8 = udiv i64 %7, 32
  %9 = trunc i64 %8 to i32
  %10 = call noundef nonnull align 4 dereferenceable(4) ptr @_ZN6vectorIjLb0EjEixEj(ptr noundef nonnull align 8 dereferenceable(8) %5, i32 noundef %9)
  ret ptr %10
}

; Function Attrs: mustprogress nounwind uwtable
define linkonce_odr hidden noundef nonnull align 4 dereferenceable(4) ptr @_ZN6vectorIjLb0EjEixEj(ptr noundef nonnull align 8 dereferenceable(8) %0, i32 noundef %1) #5 comdat align 2 {
  %3 = alloca ptr, align 8
  %4 = alloca i32, align 4
  store ptr %0, ptr %3, align 8, !tbaa !149
  store i32 %1, ptr %4, align 4, !tbaa !97
  %5 = load ptr, ptr %3, align 8
  %6 = getelementptr inbounds nuw %class.vector, ptr %5, i32 0, i32 0
  %7 = load ptr, ptr %6, align 8, !tbaa !151
  %8 = load i32, ptr %4, align 4, !tbaa !97
  %9 = zext i32 %8 to i64
  %10 = getelementptr inbounds nuw i32, ptr %7, i64 %9
  ret ptr %10
}

; Function Attrs: mustprogress nounwind uwtable
define linkonce_odr hidden noundef nonnull align 8 dereferenceable(20) ptr @_ZNK3sls12bv_valuation4bitsEv(ptr noundef nonnull align 8 dereferenceable(184) %0) #5 comdat align 2 {
  %2 = alloca ptr, align 8
  store ptr %0, ptr %2, align 8, !tbaa !122
  %3 = load ptr, ptr %2, align 8
  %4 = getelementptr inbounds nuw %"class.sls::bv_valuation", ptr %3, i32 0, i32 0
  ret ptr %4
}

; Function Attrs: mustprogress uwtable
define linkonce_odr hidden void @_ZN3sls5bvect3setEjb(ptr noundef nonnull align 8 dereferenceable(20) %0, i32 noundef %1, i1 noundef zeroext %2) #4 comdat align 2 {
  %4 = alloca ptr, align 8
  %5 = alloca i32, align 4
  %6 = alloca i8, align 1
  %7 = alloca i32, align 4
  store ptr %0, ptr %4, align 8, !tbaa !110
  store i32 %1, ptr %5, align 4, !tbaa !97
  %8 = zext i1 %2 to i8
  store i8 %8, ptr %6, align 1, !tbaa !133
  %9 = load ptr, ptr %4, align 8
  call void @llvm.lifetime.start.p0(i64 4, ptr %7) #3
  %10 = load i8, ptr %6, align 1, !tbaa !133, !range !134, !noundef !135
  %11 = trunc i8 %10 to i1
  %12 = zext i1 %11 to i32
  %13 = sub i32 0, %12
  store i32 %13, ptr %7, align 4, !tbaa !97
  %14 = load i32, ptr %7, align 4, !tbaa !97
  %15 = load i32, ptr %5, align 4, !tbaa !97
  %16 = call noundef nonnull align 4 dereferenceable(4) ptr @_ZN3sls5bvect12get_bit_wordEj(ptr noundef nonnull align 8 dereferenceable(20) %9, i32 noundef %15)
  %17 = load i32, ptr %16, align 4, !tbaa !97
  %18 = xor i32 %14, %17
  %19 = load i32, ptr %5, align 4, !tbaa !97
  %20 = call noundef i32 @_ZN3sls5bvect12get_pos_maskEj(i32 noundef %19)
  %21 = and i32 %18, %20
  %22 = load i32, ptr %5, align 4, !tbaa !97
  %23 = call noundef nonnull align 4 dereferenceable(4) ptr @_ZN3sls5bvect12get_bit_wordEj(ptr noundef nonnull align 8 dereferenceable(20) %9, i32 noundef %22)
  %24 = load i32, ptr %23, align 4, !tbaa !97
  %25 = xor i32 %24, %21
  store i32 %25, ptr %23, align 4, !tbaa !97
  call void @llvm.lifetime.end.p0(i64 4, ptr %7) #3
  ret void
}

; Function Attrs: mustprogress uwtable
define linkonce_odr hidden void @_ZNK3sls12bv_valuation8set_zeroERNS_5bvectE(ptr noundef nonnull align 8 dereferenceable(184) %0, ptr noundef nonnull align 8 dereferenceable(20) %1) #4 comdat align 2 {
  %3 = alloca ptr, align 8
  %4 = alloca ptr, align 8
  %5 = alloca i32, align 4
  store ptr %0, ptr %3, align 8, !tbaa !122
  store ptr %1, ptr %4, align 8, !tbaa !110
  %6 = load ptr, ptr %3, align 8
  call void @llvm.lifetime.start.p0(i64 4, ptr %5) #3
  store i32 0, ptr %5, align 4, !tbaa !97
  br label %7

7:                                                ; preds = %17, %2
  %8 = load i32, ptr %5, align 4, !tbaa !97
  %9 = getelementptr inbounds nuw %"class.sls::bv_valuation", ptr %6, i32 0, i32 9
  %10 = load i32, ptr %9, align 4, !tbaa !128
  %11 = icmp ult i32 %8, %10
  br i1 %11, label %13, label %12

12:                                               ; preds = %7
  call void @llvm.lifetime.end.p0(i64 4, ptr %5) #3
  br label %20

13:                                               ; preds = %7
  %14 = load ptr, ptr %4, align 8, !tbaa !110
  %15 = load i32, ptr %5, align 4, !tbaa !97
  %16 = call noundef nonnull align 4 dereferenceable(4) ptr @_ZN6vectorIjLb0EjEixEj(ptr noundef nonnull align 8 dereferenceable(8) %14, i32 noundef %15)
  store i32 0, ptr %16, align 4, !tbaa !97
  br label %17

17:                                               ; preds = %13
  %18 = load i32, ptr %5, align 4, !tbaa !97
  %19 = add i32 %18, 1
  store i32 %19, ptr %5, align 4, !tbaa !97
  br label %7, !llvm.loop !230

20:                                               ; preds = %12
  ret void
}

; Function Attrs: mustprogress uwtable
define hidden noundef zeroext i1 @_ZN3sls7bv_eval14try_repair_sgeEbRNS_12bv_valuationERKS1_(ptr noundef nonnull align 8 dereferenceable(865) %0, i1 noundef zeroext %1, ptr noundef nonnull align 8 dereferenceable(184) %2, ptr noundef nonnull align 8 dereferenceable(184) %3) #4 align 2 {
  %5 = alloca ptr, align 8
  %6 = alloca i8, align 1
  %7 = alloca ptr, align 8
  %8 = alloca ptr, align 8
  %9 = alloca ptr, align 8
  %10 = alloca i8, align 1
  %11 = alloca ptr, align 8
  store ptr %0, ptr %5, align 8, !tbaa !3
  %12 = zext i1 %1 to i8
  store i8 %12, ptr %6, align 1, !tbaa !133
  store ptr %2, ptr %7, align 8, !tbaa !122
  store ptr %3, ptr %8, align 8, !tbaa !122
  %13 = load ptr, ptr %5, align 8
  call void @llvm.lifetime.start.p0(i64 8, ptr %9) #3
  %14 = getelementptr inbounds nuw %"class.sls::bv_eval", ptr %13, i32 0, i32 25
  store ptr %14, ptr %9, align 8, !tbaa !110
  %15 = load ptr, ptr %8, align 8, !tbaa !122
  %16 = load ptr, ptr %9, align 8, !tbaa !110
  call void @_ZNK3sls12bv_valuation8set_zeroERNS_5bvectE(ptr noundef nonnull align 8 dereferenceable(184) %15, ptr noundef nonnull align 8 dereferenceable(20) %16)
  %17 = load ptr, ptr %9, align 8, !tbaa !110
  %18 = load ptr, ptr %8, align 8, !tbaa !122
  %19 = getelementptr inbounds nuw %"class.sls::bv_valuation", ptr %18, i32 0, i32 8
  %20 = load i32, ptr %19, align 8, !tbaa !124
  %21 = sub i32 %20, 1
  call void @_ZN3sls5bvect3setEjb(ptr noundef nonnull align 8 dereferenceable(20) %17, i32 noundef %21, i1 noundef zeroext true)
  %22 = load ptr, ptr %9, align 8, !tbaa !110
  %23 = load ptr, ptr %8, align 8, !tbaa !122
  %24 = getelementptr inbounds nuw %"class.sls::bv_valuation", ptr %23, i32 0, i32 8
  %25 = load i32, ptr %24, align 8, !tbaa !124
  call void @_ZN3sls5bvect6set_bwEj(ptr noundef nonnull align 8 dereferenceable(20) %22, i32 noundef %25)
  call void @llvm.lifetime.start.p0(i64 1, ptr %10) #3
  store i8 0, ptr %10, align 1, !tbaa !133
  %26 = load i8, ptr %6, align 1, !tbaa !133, !range !134, !noundef !135
  %27 = trunc i8 %26 to i1
  br i1 %27, label %28, label %35

28:                                               ; preds = %4
  %29 = load ptr, ptr %7, align 8, !tbaa !122
  %30 = load ptr, ptr %8, align 8, !tbaa !122
  %31 = call noundef nonnull align 8 dereferenceable(20) ptr @_ZNK3sls12bv_valuation4bitsEv(ptr noundef nonnull align 8 dereferenceable(184) %30)
  %32 = load ptr, ptr %9, align 8, !tbaa !110
  %33 = call noundef zeroext i1 @_ZN3sls7bv_eval14try_repair_sgeERNS_12bv_valuationERKNS_5bvectES5_(ptr noundef nonnull align 8 dereferenceable(865) %13, ptr noundef nonnull align 8 dereferenceable(184) %29, ptr noundef nonnull align 8 dereferenceable(20) %31, ptr noundef nonnull align 8 dereferenceable(20) %32)
  %34 = zext i1 %33 to i8
  store i8 %34, ptr %10, align 1, !tbaa !133
  br label %59

35:                                               ; preds = %4
  %36 = load ptr, ptr %8, align 8, !tbaa !122
  %37 = call noundef nonnull align 8 dereferenceable(20) ptr @_ZNK3sls12bv_valuation4bitsEv(ptr noundef nonnull align 8 dereferenceable(184) %36)
  %38 = load ptr, ptr %9, align 8, !tbaa !110
  %39 = call noundef zeroext i1 @_ZN3slseqERKNS_5bvectES2_(ptr noundef nonnull align 8 dereferenceable(20) %37, ptr noundef nonnull align 8 dereferenceable(20) %38)
  br i1 %39, label %40, label %41

40:                                               ; preds = %35
  store i8 0, ptr %10, align 1, !tbaa !133
  br label %58

41:                                               ; preds = %35
  call void @llvm.lifetime.start.p0(i64 8, ptr %11) #3
  %42 = getelementptr inbounds nuw %"class.sls::bv_eval", ptr %13, i32 0, i32 27
  store ptr %42, ptr %11, align 8, !tbaa !110
  %43 = load ptr, ptr %7, align 8, !tbaa !122
  %44 = load ptr, ptr %11, align 8, !tbaa !110
  %45 = load ptr, ptr %8, align 8, !tbaa !122
  %46 = call noundef nonnull align 8 dereferenceable(20) ptr @_ZNK3sls12bv_valuation4bitsEv(ptr noundef nonnull align 8 dereferenceable(184) %45)
  %47 = getelementptr inbounds nuw %"class.sls::bv_eval", ptr %13, i32 0, i32 22
  call void @_ZNK3sls12bv_valuation7set_subERNS_5bvectERKS1_S4_(ptr noundef nonnull align 8 dereferenceable(184) %43, ptr noundef nonnull align 8 dereferenceable(20) %44, ptr noundef nonnull align 8 dereferenceable(20) %46, ptr noundef nonnull align 8 dereferenceable(20) %47)
  %48 = load ptr, ptr %11, align 8, !tbaa !110
  %49 = load ptr, ptr %8, align 8, !tbaa !122
  %50 = getelementptr inbounds nuw %"class.sls::bv_valuation", ptr %49, i32 0, i32 8
  %51 = load i32, ptr %50, align 8, !tbaa !124
  call void @_ZN3sls5bvect6set_bwEj(ptr noundef nonnull align 8 dereferenceable(20) %48, i32 noundef %51)
  %52 = load ptr, ptr %7, align 8, !tbaa !122
  %53 = load ptr, ptr %11, align 8, !tbaa !110
  %54 = load ptr, ptr %9, align 8, !tbaa !110
  %55 = call noundef zeroext i1 @_ZN3sls7bv_eval14try_repair_sleERNS_12bv_valuationERKNS_5bvectES5_(ptr noundef nonnull align 8 dereferenceable(865) %13, ptr noundef nonnull align 8 dereferenceable(184) %52, ptr noundef nonnull align 8 dereferenceable(20) %53, ptr noundef nonnull align 8 dereferenceable(20) %54)
  %56 = zext i1 %55 to i8
  store i8 %56, ptr %10, align 1, !tbaa !133
  %57 = load ptr, ptr %11, align 8, !tbaa !110
  call void @_ZN3sls5bvect6set_bwEj(ptr noundef nonnull align 8 dereferenceable(20) %57, i32 noundef 0)
  call void @llvm.lifetime.end.p0(i64 8, ptr %11) #3
  br label %58

58:                                               ; preds = %41, %40
  br label %59

59:                                               ; preds = %58, %28
  %60 = load ptr, ptr %9, align 8, !tbaa !110
  call void @_ZN3sls5bvect6set_bwEj(ptr noundef nonnull align 8 dereferenceable(20) %60, i32 noundef 0)
  %61 = load i8, ptr %10, align 1, !tbaa !133, !range !134, !noundef !135
  %62 = trunc i8 %61 to i1
  call void @llvm.lifetime.end.p0(i64 1, ptr %10) #3
  call void @llvm.lifetime.end.p0(i64 8, ptr %9) #3
  ret i1 %62
}