; Function Attrs: mustprogress uwtable
define hidden noundef zeroext i1 @_ZN3sls7bv_eval14try_repair_sgeEbRNS_12bv_valuationERKS1_(ptr noundef nonnull align 8 dereferenceable(865) %0, i1 noundef zeroext %1, ptr noundef nonnull align 8 dereferenceable(184) %2, ptr noundef nonnull align 8 dereferenceable(184) %3) local_unnamed_addr #3 align 2 {
  %5 = getelementptr inbounds nuw i8, ptr %0, i64 768
  %6 = getelementptr inbounds nuw i8, ptr %3, i64 156
  %7 = load i32, ptr %6, align 4, !tbaa !131
  %.not.i = icmp eq i32 %7, 0
  %.pre = load ptr, ptr %5, align 8, !tbaa !97
  br i1 %.not.i, label %_ZNK3sls12bv_valuation8set_zeroERNS_5bvectE.exit, label %.lr.ph.i

.lr.ph.i:                                         ; preds = %4, %.lr.ph.i
  %indvars.iv.i = phi i64 [ %indvars.iv.next.i, %.lr.ph.i ], [ 0, %4 ]
  %8 = getelementptr inbounds nuw i32, ptr %.pre, i64 %indvars.iv.i
  store i32 0, ptr %8, align 4, !tbaa !102
  %indvars.iv.next.i = add nuw nsw i64 %indvars.iv.i, 1
  %9 = load i32, ptr %6, align 4, !tbaa !131
  %10 = zext i32 %9 to i64
  %11 = icmp samesign ult i64 %indvars.iv.next.i, %10
  br i1 %11, label %.lr.ph.i, label %_ZNK3sls12bv_valuation8set_zeroERNS_5bvectE.exit, !llvm.loop !199

_ZNK3sls12bv_valuation8set_zeroERNS_5bvectE.exit: ; preds = %.lr.ph.i, %4
  %12 = getelementptr inbounds nuw i8, ptr %3, i64 152
  %13 = load i32, ptr %12, align 8, !tbaa !128
  %14 = add i32 %13, -1
  %15 = lshr i32 %14, 5
  %16 = zext nneg i32 %15 to i64
  %17 = getelementptr inbounds nuw i32, ptr %.pre, i64 %16
  %18 = load i32, ptr %17, align 4, !tbaa !102
  %19 = and i32 %14, 31
  %20 = shl nuw i32 1, %19
  %21 = or i32 %20, %18
  store i32 %21, ptr %17, align 4, !tbaa !102
  %22 = load i32, ptr %12, align 8, !tbaa !128
  tail call void @_ZN3sls5bvect6set_bwEj(ptr noundef nonnull align 8 dereferenceable(20) %5, i32 noundef %22)
  br i1 %1, label %23, label %25

23:                                               ; preds = %_ZNK3sls12bv_valuation8set_zeroERNS_5bvectE.exit
  %24 = tail call noundef zeroext i1 @_ZN3sls7bv_eval14try_repair_sgeERNS_12bv_valuationERKNS_5bvectES5_(ptr noundef nonnull align 8 dereferenceable(865) %0, ptr noundef nonnull align 8 dereferenceable(184) %2, ptr noundef nonnull align 8 dereferenceable(20) %3, ptr noundef nonnull align 8 dereferenceable(20) %5)
  br label %32

25:                                               ; preds = %_ZNK3sls12bv_valuation8set_zeroERNS_5bvectE.exit
  %26 = tail call noundef zeroext i1 @_ZN3slseqERKNS_5bvectES2_(ptr noundef nonnull align 8 dereferenceable(20) %3, ptr noundef nonnull align 8 dereferenceable(20) %5)
  br i1 %26, label %32, label %27

27:                                               ; preds = %25
  %28 = getelementptr inbounds nuw i8, ptr %0, i64 816
  %29 = getelementptr inbounds nuw i8, ptr %0, i64 696
  tail call void @_ZNK3sls12bv_valuation7set_subERNS_5bvectERKS1_S4_(ptr noundef nonnull align 8 dereferenceable(184) %2, ptr noundef nonnull align 8 dereferenceable(20) %28, ptr noundef nonnull align 8 dereferenceable(20) %3, ptr noundef nonnull align 8 dereferenceable(20) %29)
  %30 = load i32, ptr %12, align 8, !tbaa !128
  tail call void @_ZN3sls5bvect6set_bwEj(ptr noundef nonnull align 8 dereferenceable(20) %28, i32 noundef %30)
  %31 = tail call noundef zeroext i1 @_ZN3sls7bv_eval14try_repair_sleERNS_12bv_valuationERKNS_5bvectES5_(ptr noundef nonnull align 8 dereferenceable(865) %0, ptr noundef nonnull align 8 dereferenceable(184) %2, ptr noundef nonnull align 8 dereferenceable(20) %28, ptr noundef nonnull align 8 dereferenceable(20) %5)
  tail call void @_ZN3sls5bvect6set_bwEj(ptr noundef nonnull align 8 dereferenceable(20) %28, i32 noundef 0)
  br label %32

32:                                               ; preds = %25, %27, %23
  %.0.shrunk = phi i1 [ %24, %23 ], [ %31, %27 ], [ false, %25 ]
  tail call void @_ZN3sls5bvect6set_bwEj(ptr noundef nonnull align 8 dereferenceable(20) %5, i32 noundef 0)
  ret i1 %.0.shrunk
}